; ModuleID = '29/1164.c'
source_filename = "29/1164.c"
target datalayout = "e-m:e-p270:32:32-p271:32:32-p272:64:64-i64:64-f80:128-n8:16:32:64-S128"
target triple = "x86_64-pc-linux-gnu"

@.str = private unnamed_addr constant [3 x i8] c"%d\00", align 1
@.str.1 = private unnamed_addr constant [7 x i8] c"%.3lf\0A\00", align 1

; Function Attrs: noinline nounwind uwtable
define dso_local i32 @main() #0 {
  %1 = alloca i32, align 4
  %2 = alloca i32, align 4
  %3 = alloca i32, align 4
  %4 = alloca i32, align 4
  %5 = alloca i32, align 4
  %6 = alloca i32, align 4
  %7 = alloca i32, align 4
  %8 = alloca i32, align 4
  %9 = alloca double*, align 8
  store i32 0, i32* %1, align 4
  %10 = call i32 (i8*, ...) @__isoc99_scanf(i8* getelementptr inbounds ([3 x i8], [3 x i8]* @.str, i64 0, i64 0), i32* %2)
  %11 = load i32, i32* %2, align 4
  %12 = sext i32 %11 to i64
  %13 = mul i64 8, %12
  %14 = call noalias i8* @malloc(i64 %13) #3
  %15 = bitcast i8* %14 to double*
  store double* %15, double** %9, align 8
  store i32 0, i32* %4, align 4
  br label %16

16:                                               ; preds = %56, %0
  %17 = load i32, i32* %4, align 4
  %18 = load i32, i32* %2, align 4
  %19 = icmp slt i32 %17, %18
  br i1 %19, label %20, label %59

20:                                               ; preds = %16
  %21 = call i32 (i8*, ...) @__isoc99_scanf(i8* getelementptr inbounds ([3 x i8], [3 x i8]* @.str, i64 0, i64 0), i32* %3)
  store i32 1, i32* %7, align 4
  store i32 2, i32* %6, align 4
  %22 = load double*, double** %9, align 8
  %23 = load i32, i32* %4, align 4
  %24 = sext i32 %23 to i64
  %25 = getelementptr inbounds double, double* %22, i64 %24
  store double 0.000000e+00, double* %25, align 8
  store i32 0, i32* %5, align 4
  br label %26

26:                                               ; preds = %52, %20
  %27 = load i32, i32* %5, align 4
  %28 = load i32, i32* %3, align 4
  %29 = icmp slt i32 %27, %28
  br i1 %29, label %30, label %55

30:                                               ; preds = %26
  %31 = load double*, double** %9, align 8
  %32 = load i32, i32* %4, align 4
  %33 = sext i32 %32 to i64
  %34 = getelementptr inbounds double, double* %31, i64 %33
  %35 = load double, double* %34, align 8
  %36 = load i32, i32* %6, align 4
  %37 = sitofp i32 %36 to double
  %38 = fmul double 1.000000e+00, %37
  %39 = load i32, i32* %7, align 4
  %40 = sitofp i32 %39 to double
  %41 = fdiv double %38, %40
  %42 = fadd double %35, %41
  %43 = load double*, double** %9, align 8
  %44 = load i32, i32* %4, align 4
  %45 = sext i32 %44 to i64
  %46 = getelementptr inbounds double, double* %43, i64 %45
  store double %42, double* %46, align 8
  %47 = load i32, i32* %7, align 4
  %48 = load i32, i32* %6, align 4
  %49 = add nsw i32 %47, %48
  store i32 %49, i32* %8, align 4
  %50 = load i32, i32* %6, align 4
  store i32 %50, i32* %7, align 4
  %51 = load i32, i32* %8, align 4
  store i32 %51, i32* %6, align 4
  br label %52

52:                                               ; preds = %30
  %53 = load i32, i32* %5, align 4
  %54 = add nsw i32 %53, 1
  store i32 %54, i32* %5, align 4
  br label %26

55:                                               ; preds = %26
  br label %56

56:                                               ; preds = %55
  %57 = load i32, i32* %4, align 4
  %58 = add nsw i32 %57, 1
  store i32 %58, i32* %4, align 4
  br label %16

59:                                               ; preds = %16
  store i32 0, i32* %4, align 4
  br label %60

60:                                               ; preds = %71, %59
  %61 = load i32, i32* %4, align 4
  %62 = load i32, i32* %2, align 4
  %63 = icmp slt i32 %61, %62
  br i1 %63, label %64, label %74

64:                                               ; preds = %60
  %65 = load double*, double** %9, align 8
  %66 = load i32, i32* %4, align 4
  %67 = sext i32 %66 to i64
  %68 = getelementptr inbounds double, double* %65, i64 %67
  %69 = load double, double* %68, align 8
  %70 = call i32 (i8*, ...) @printf(i8* getelementptr inbounds ([7 x i8], [7 x i8]* @.str.1, i64 0, i64 0), double %69)
  br label %71

71:                                               ; preds = %64
  %72 = load i32, i32* %4, align 4
  %73 = add nsw i32 %72, 1
  store i32 %73, i32* %4, align 4
  br label %60

74:                                               ; preds = %60
  %75 = load double*, double** %9, align 8
  %76 = bitcast double* %75 to i8*
  call void @free(i8* %76) #3
  ret i32 0
}

declare dso_local i32 @__isoc99_scanf(i8*, ...) #1

; Function Attrs: nounwind
declare dso_local noalias i8* @malloc(i64) #2

declare dso_local i32 @printf(i8*, ...) #1

; Function Attrs: nounwind
declare dso_local void @free(i8*) #2


!llvm.module.flags = !{!0}
!llvm.ident = !{!1}

!0 = !{i32 1, !"wchar_size", i32 4}
!1 = !{!"clang version 10.0.0-4ubuntu1 "}
